target datalayout = "e-m:e-p270:32:32-p271:32:32-p272:64:64-i64:64-i128:128-f80:128-n8:16:32:64-S128"
target triple = "x86_64-pc-linux-gnu"

@ett_bssgp_list_of_setup_pfcs = internal global i32 0, align 4
@ett_bssgp = internal global i32 0, align 4
@ett_bssgp_pfcs_to_be_set_up_list_t10 = internal global i32 0, align 4
@ett_bssgp_pfcs_to_be_set_up_list_arp = internal global i32 0, align 4
@ett_bssgp_pfcs_to_be_set_up_list_abqp = internal global i32 0, align 4
@ett_bssgp_pfcs_to_be_set_up_list_pft = internal global i32 0, align 4
@ett_bssgp_pfcs_to_be_set_up_list = internal global i32 0, align 4
@ett_bssgp_new = internal global i32 0, align 4
@ett_bssgp_pfc_flow_control_parameters_pfc = internal global i32 0, align 4
@ett_bssgp_ra_id = internal global i32 0, align 4
@ett_bssgp_extended_feature_bitmap = internal global i32 0, align 4
@ett_bssgp_prio_class_ind = internal global i32 0, align 4
@ett_bssgp_elem = hidden global [116 x i32] zeroinitializer, align 16
@ett_bssgp_msg = internal global [149 x i32] zeroinitializer, align 16
@.str.274 = private unnamed_addr constant [37 x i8] c"Base Station Subsystem GPRS Protocol\00", align 1
@.str.275 = private unnamed_addr constant [6 x i8] c"BSSGP\00", align 1
@.str.276 = private unnamed_addr constant [6 x i8] c"bssgp\00", align 1
@proto_bssgp = internal global i32 0, align 4
@bssgp_module = internal global ptr null, align 8
@.str.277 = private unnamed_addr constant [11 x i8] c"decode_nri\00", align 1
@.str.278 = private unnamed_addr constant [11 x i8] c"nri_length\00", align 1

; Function Attrs: null_pointer_is_valid sspstrong uwtable
define hidden void @proto_register_bssgp() #1 {
  %1 = alloca i32, align 4
  %2 = alloca i32, align 4
  %3 = alloca [277 x ptr], align 16
  %4 = alloca ptr, align 8
  call void @llvm.lifetime.start.p0(i64 4, ptr %1) #4
  call void @llvm.lifetime.start.p0(i64 4, ptr %2) #4
  call void @llvm.lifetime.start.p0(i64 2216, ptr %3) #4
  call void @llvm.lifetime.start.p0(i64 8, ptr %4) #4
  %5 = getelementptr [277 x ptr], ptr %3, i64 0, i64 0
  store ptr @ett_bssgp, ptr %5, align 16
  %6 = getelementptr [277 x ptr], ptr %3, i64 0, i64 1
  store ptr @ett_bssgp_list_of_setup_pfcs, ptr %6, align 8
  %7 = getelementptr [277 x ptr], ptr %3, i64 0, i64 2
  store ptr @ett_bssgp_pfcs_to_be_set_up_list_t10, ptr %7, align 16
  %8 = getelementptr [277 x ptr], ptr %3, i64 0, i64 3
  store ptr @ett_bssgp_pfcs_to_be_set_up_list_arp, ptr %8, align 8
  %9 = getelementptr [277 x ptr], ptr %3, i64 0, i64 4
  store ptr @ett_bssgp_pfcs_to_be_set_up_list_abqp, ptr %9, align 16
  %10 = getelementptr [277 x ptr], ptr %3, i64 0, i64 5
  store ptr @ett_bssgp_pfcs_to_be_set_up_list_pft, ptr %10, align 8
  %11 = getelementptr [277 x ptr], ptr %3, i64 0, i64 6
  store ptr @ett_bssgp_pfcs_to_be_set_up_list, ptr %11, align 16
  %12 = getelementptr [277 x ptr], ptr %3, i64 0, i64 7
  store ptr @ett_bssgp_new, ptr %12, align 8
  %13 = getelementptr [277 x ptr], ptr %3, i64 0, i64 8
  store ptr @ett_bssgp_pfc_flow_control_parameters_pfc, ptr %13, align 16
  %14 = getelementptr [277 x ptr], ptr %3, i64 0, i64 9
  store ptr @ett_bssgp_ra_id, ptr %14, align 8
  %15 = getelementptr [277 x ptr], ptr %3, i64 0, i64 10
  store ptr @ett_bssgp_extended_feature_bitmap, ptr %15, align 16
  %16 = getelementptr [277 x ptr], ptr %3, i64 0, i64 11
  store ptr @ett_bssgp_prio_class_ind, ptr %16, align 8
  store i32 12, ptr %2, align 4
  store i32 0, ptr %1, align 4
  br label %17

17:                                               ; preds = %28, %0
  %18 = load i32, ptr %1, align 4
  %19 = zext i32 %18 to i64
  %20 = icmp ult i64 %19, 116
  br i1 %20, label %21, label %33

21:                                               ; preds = %17
  %22 = load i32, ptr %1, align 4
  %23 = zext i32 %22 to i64
  %24 = getelementptr [116 x i32], ptr @ett_bssgp_elem, i64 0, i64 %23
  %25 = load i32, ptr %2, align 4
  %26 = zext i32 %25 to i64
  %27 = getelementptr [277 x ptr], ptr %3, i64 0, i64 %26
  store ptr %24, ptr %27, align 8
  br label %28

28:                                               ; preds = %21
  %29 = load i32, ptr %1, align 4
  %30 = add i32 %29, 1
  store i32 %30, ptr %1, align 4
  %31 = load i32, ptr %2, align 4
  %32 = add i32 %31, 1
  store i32 %32, ptr %2, align 4
  br label %17, !llvm.loop !18

33:                                               ; preds = %17
  store i32 0, ptr %1, align 4
  br label %34

34:                                               ; preds = %45, %33
  %35 = load i32, ptr %1, align 4
  %36 = zext i32 %35 to i64
  %37 = icmp ult i64 %36, 149
  br i1 %37, label %38, label %50

38:                                               ; preds = %34
  %39 = load i32, ptr %1, align 4
  %40 = zext i32 %39 to i64
  %41 = getelementptr [149 x i32], ptr @ett_bssgp_msg, i64 0, i64 %40
  %42 = load i32, ptr %2, align 4
  %43 = zext i32 %42 to i64
  %44 = getelementptr [277 x ptr], ptr %3, i64 0, i64 %43
  store ptr %41, ptr %44, align 8
  br label %45

45:                                               ; preds = %38
  %46 = load i32, ptr %1, align 4
  %47 = add i32 %46, 1
  store i32 %47, ptr %1, align 4
  %48 = load i32, ptr %2, align 4
  %49 = add i32 %48, 1
  store i32 %49, ptr %2, align 4
  br label %34, !llvm.loop !19

50:                                               ; preds = %34
  %51 = call i32 @proto_register_protocol(ptr noundef @.str.274, ptr noundef @.str.275, ptr noundef @.str.276)
  store i32 %51, ptr @proto_bssgp, align 4
  %52 = load i32, ptr @proto_bssgp, align 4
  call void @proto_register_field_array(i32 noundef %52, ptr noundef @proto_register_bssgp.hf, i32 noundef 124)
  %53 = getelementptr inbounds [277 x ptr], ptr %3, i64 0, i64 0
  call void @proto_register_subtree_array(ptr noundef %53, i32 noundef 277)
  %54 = load i32, ptr @proto_bssgp, align 4
  %55 = call ptr @expert_register_protocol(i32 noundef %54)
  store ptr %55, ptr %4, align 8
  %56 = load ptr, ptr %4, align 8
  call void @expert_register_field_array(ptr noundef %56, ptr noundef @proto_register_bssgp.ei, i32 noundef 11)
  %57 = load i32, ptr @proto_bssgp, align 4
  %58 = call ptr @register_dissector(ptr noundef @.str.276, ptr noundef @dissect_bssgp, i32 noundef %57)
  %59 = load i32, ptr @proto_bssgp, align 4
  %60 = call ptr @prefs_register_protocol(i32 noundef %59, ptr noundef null)
  store ptr %60, ptr @bssgp_module, align 8
  %61 = load ptr, ptr @bssgp_module, align 8
  call void @prefs_register_obsolete_preference(ptr noundef %61, ptr noundef @.str.277)
  %62 = load ptr, ptr @bssgp_module, align 8
  call void @prefs_register_obsolete_preference(ptr noundef %62, ptr noundef @.str.278)
  call void @llvm.lifetime.end.p0(i64 8, ptr %4) #4
  call void @llvm.lifetime.end.p0(i64 2216, ptr %3) #4
  call void @llvm.lifetime.end.p0(i64 4, ptr %2) #4
  call void @llvm.lifetime.end.p0(i64 4, ptr %1) #4
  ret void
}