; Function Attrs: null_pointer_is_valid sspstrong uwtable
define hidden void @proto_register_bssgp() local_unnamed_addr #1 {
  %1 = alloca [277 x ptr], align 16
  call void @llvm.lifetime.start.p0(i64 2216, ptr nonnull %1) #4
  store ptr @ett_bssgp, ptr %1, align 16
  %2 = getelementptr inbounds nuw i8, ptr %1, i64 8
  store ptr @ett_bssgp_list_of_setup_pfcs, ptr %2, align 8
  %3 = getelementptr inbounds nuw i8, ptr %1, i64 16
  store ptr @ett_bssgp_pfcs_to_be_set_up_list_t10, ptr %3, align 16
  %4 = getelementptr inbounds nuw i8, ptr %1, i64 24
  store ptr @ett_bssgp_pfcs_to_be_set_up_list_arp, ptr %4, align 8
  %5 = getelementptr inbounds nuw i8, ptr %1, i64 32
  store ptr @ett_bssgp_pfcs_to_be_set_up_list_abqp, ptr %5, align 16
  %6 = getelementptr inbounds nuw i8, ptr %1, i64 40
  store ptr @ett_bssgp_pfcs_to_be_set_up_list_pft, ptr %6, align 8
  %7 = getelementptr inbounds nuw i8, ptr %1, i64 48
  store ptr @ett_bssgp_pfcs_to_be_set_up_list, ptr %7, align 16
  %8 = getelementptr inbounds nuw i8, ptr %1, i64 56
  store ptr @ett_bssgp_new, ptr %8, align 8
  %9 = getelementptr inbounds nuw i8, ptr %1, i64 64
  store ptr @ett_bssgp_pfc_flow_control_parameters_pfc, ptr %9, align 16
  %10 = getelementptr inbounds nuw i8, ptr %1, i64 72
  store ptr @ett_bssgp_ra_id, ptr %10, align 8
  %11 = getelementptr inbounds nuw i8, ptr %1, i64 80
  store ptr @ett_bssgp_extended_feature_bitmap, ptr %11, align 16
  %12 = getelementptr inbounds nuw i8, ptr %1, i64 88
  store ptr @ett_bssgp_prio_class_ind, ptr %12, align 8
  br label %13

13:                                               ; preds = %0, %13
  %indvars.iv18 = phi i64 [ 12, %0 ], [ %indvars.iv.next19, %13 ]
  %indvars.iv = phi i64 [ 0, %0 ], [ %indvars.iv.next, %13 ]
  %14 = getelementptr [116 x i32], ptr @ett_bssgp_elem, i64 0, i64 %indvars.iv
  %15 = getelementptr [277 x ptr], ptr %1, i64 0, i64 %indvars.iv18
  store ptr %14, ptr %15, align 8
  %indvars.iv.next = add nuw nsw i64 %indvars.iv, 1
  %indvars.iv.next19 = add nuw nsw i64 %indvars.iv18, 1
  %exitcond.not = icmp eq i64 %indvars.iv.next, 116
  br i1 %exitcond.not, label %.preheader, label %13, !llvm.loop !16

.preheader:                                       ; preds = %13, %.preheader
  %indvars.iv25 = phi i64 [ %indvars.iv.next26, %.preheader ], [ 128, %13 ]
  %indvars.iv23 = phi i64 [ %indvars.iv.next24, %.preheader ], [ 0, %13 ]
  %16 = getelementptr [149 x i32], ptr @ett_bssgp_msg, i64 0, i64 %indvars.iv23
  %17 = getelementptr [277 x ptr], ptr %1, i64 0, i64 %indvars.iv25
  store ptr %16, ptr %17, align 8
  %indvars.iv.next24 = add nuw nsw i64 %indvars.iv23, 1
  %indvars.iv.next26 = add nuw nsw i64 %indvars.iv25, 1
  %exitcond30.not = icmp eq i64 %indvars.iv.next24, 149
  br i1 %exitcond30.not, label %18, label %.preheader, !llvm.loop !17

18:                                               ; preds = %.preheader
  %19 = tail call i32 @proto_register_protocol(ptr noundef nonnull @.str.274, ptr noundef nonnull @.str.275, ptr noundef nonnull @.str.276)
  store i32 %19, ptr @proto_bssgp, align 4
  tail call void @proto_register_field_array(i32 noundef %19, ptr noundef nonnull @proto_register_bssgp.hf, i32 noundef 124)
  call void @proto_register_subtree_array(ptr noundef nonnull %1, i32 noundef 277)
  %20 = load i32, ptr @proto_bssgp, align 4
  %21 = call ptr @expert_register_protocol(i32 noundef %20)
  call void @expert_register_field_array(ptr noundef %21, ptr noundef nonnull @proto_register_bssgp.ei, i32 noundef 11)
  %22 = load i32, ptr @proto_bssgp, align 4
  %23 = call ptr @register_dissector(ptr noundef nonnull @.str.276, ptr noundef nonnull @dissect_bssgp, i32 noundef %22)
  %24 = load i32, ptr @proto_bssgp, align 4
  %25 = call ptr @prefs_register_protocol(i32 noundef %24, ptr noundef null)
  store ptr %25, ptr @bssgp_module, align 8
  call void @prefs_register_obsolete_preference(ptr noundef %25, ptr noundef nonnull @.str.277)
  %26 = load ptr, ptr @bssgp_module, align 8
  call void @prefs_register_obsolete_preference(ptr noundef %26, ptr noundef nonnull @.str.278)
  call void @llvm.lifetime.end.p0(i64 2216, ptr nonnull %1) #4
  ret void
}